Certificate:
    Data:
        Version: 3 (0x2)
        Serial Number: 3 (0x3)
        Signature Algorithm: md5WithRSAEncryption
        Issuer: C=US, ST=MA, L=Woburn, O=Pingtel Corp., OU=Certificate Authority, CN=Daniel Winsor/Email=dwinsor@pingtel.com
        Validity
            Not Before: Oct 18 15:35:24 2002 GMT
            Not After : Oct 18 15:35:24 2003 GMT
        Subject: C=US, ST=MA, L=Woburn, O=Pingtel Corp., OU=Engineering, CN=pingtel.com/Email=support@pingtel.com
        Subject Public Key Info:
            Public Key Algorithm: rsaEncryption
            RSA Public Key: (1024 bit)
                Modulus (1024 bit):
                    00:e0:71:88:d7:6e:89:d3:d4:60:fc:3f:60:16:d8:
                    42:49:fd:da:7f:6c:13:6f:f0:dd:3a:ee:e4:c1:be:
                    28:d7:90:a5:da:14:09:e2:4f:f3:70:cc:f1:6a:d0:
                    c1:07:c2:81:1d:b3:85:8e:04:b2:04:3e:73:53:d0:
                    34:7d:0f:42:5a:98:5b:21:c9:27:95:73:f7:5b:9a:
                    92:ef:ae:86:2d:ca:2f:da:8d:82:8d:97:13:6d:4d:
                    6e:08:5f:c9:16:4c:b5:d1:2e:e4:cc:ca:77:61:e1:
                    0e:8a:6c:5f:fc:28:32:29:5b:51:da:f9:54:38:27:
                    9b:e8:bb:11:0a:c8:31:14:a5
                Exponent: 65537 (0x10001)
        X509v3 extensions:
            X509v3 Basic Constraints: 
                CA:FALSE
            Netscape Comment: 
                OpenSSL Generated Certificate
            X509v3 Subject Key Identifier: 
                45:2D:35:D1:59:C1:BD:96:B5:B8:EC:4E:B2:62:14:BD:CE:37:1D:C1
            X509v3 Authority Key Identifier: 
                keyid:0F:A6:63:83:8E:15:FD:A4:CD:75:8E:04:CC:37:EF:83:F5:3F:01:3F
                DirName:/C=US/ST=MA/L=Woburn/O=Pingtel Corp./OU=Certificate Authority/CN=Daniel Winsor/Email=dwinsor@pingtel.com
                serial:00

    Signature Algorithm: md5WithRSAEncryption
        14:6e:92:9d:15:78:89:ad:63:30:39:3d:97:da:33:eb:48:1c:
        de:91:da:7d:1f:9c:82:b5:48:4a:74:65:77:34:ee:d8:f1:1e:
        26:4f:2c:a0:14:ed:9e:14:c1:a3:7b:a3:1f:5d:2e:19:ec:ac:
        10:3d:88:4e:cd:e0:76:72:71:5a:f8:98:9c:45:e8:80:54:a3:
        40:0c:e2:cd:68:20:36:bb:e3:6a:00:68:43:f0:07:53:82:0c:
        e8:12:08:0a:ec:35:2f:39:44:91:42:75:12:1f:77:d6:84:da:
        47:fa:6b:a8:ff:45:7a:e7:db:75:49:9a:72:9d:47:70:12:3e:
        0c:59
-----BEGIN CERTIFICATE-----
MIID1zCCA0CgAwIBAgIBAzANBgkqhkiG9w0BAQQFADCBnzELMAkGA1UEBhMCVVMx
CzAJBgNVBAgTAk1BMQ8wDQYDVQQHEwZXb2J1cm4xFjAUBgNVBAoTDVBpbmd0ZWwg
Q29ycC4xHjAcBgNVBAsTFUNlcnRpZmljYXRlIEF1dGhvcml0eTEWMBQGA1UEAxMN
RGFuaWVsIFdpbnNvcjEiMCAGCSqGSIb3DQEJARYTZHdpbnNvckBwaW5ndGVsLmNv
bTAeFw0wMjEwMTgxNTM1MjRaFw0wMzEwMTgxNTM1MjRaMIGTMQswCQYDVQQGEwJV
UzELMAkGA1UECBMCTUExDzANBgNVBAcTBldvYnVybjEWMBQGA1UEChMNUGluZ3Rl
bCBDb3JwLjEUMBIGA1UECxMLRW5naW5lZXJpbmcxFDASBgNVBAMTC3Bpbmd0ZWwu
Y29tMSIwIAYJKoZIhvcNAQkBFhNzdXBwb3J0QHBpbmd0ZWwuY29tMIGfMA0GCSqG
SIb3DQEBAQUAA4GNADCBiQKBgQDgcYjXbonT1GD8P2AW2EJJ/dp/bBNv8N067uTB
vijXkKXaFAniT/NwzPFq0MEHwoEds4WOBLIEPnNT0DR9D0JamFshySeVc/dbmpLv
roYtyi/ajYKNlxNtTW4IX8kWTLXRLuTMyndh4Q6KbF/8KDIpW1Ha+VQ4J5vouxEK
yDEUpQIDAQABo4IBKzCCAScwCQYDVR0TBAIwADAsBglghkgBhvhCAQ0EHxYdT3Bl
blNTTCBHZW5lcmF0ZWQgQ2VydGlmaWNhdGUwHQYDVR0OBBYEFEUtNdFZwb2Wtbjs
TrJiFL3ONx3BMIHMBgNVHSMEgcQwgcGAFA+mY4OOFf2kzXWOBMw374P1PwE/oYGl
pIGiMIGfMQswCQYDVQQGEwJVUzELMAkGA1UECBMCTUExDzANBgNVBAcTBldvYnVy
bjEWMBQGA1UEChMNUGluZ3RlbCBDb3JwLjEeMBwGA1UECxMVQ2VydGlmaWNhdGUg
QXV0aG9yaXR5MRYwFAYDVQQDEw1EYW5pZWwgV2luc29yMSIwIAYJKoZIhvcNAQkB
FhNkd2luc29yQHBpbmd0ZWwuY29tggEAMA0GCSqGSIb3DQEBBAUAA4GBABRukp0V
eImtYzA5PZfaM+tIHN6R2n0fnIK1SEp0ZXc07tjxHiZPLKAU7Z4UwaN7ox9dLhns
rBA9iE7N4HZycVr4mJxF6IBUo0AM4s1oIDa742oAaEPwB1OCDOgSCArsNS85RJFC
dRIfd9aE2kf6a6j/RXrn23VJmnKdR3ASPgxZ
-----END CERTIFICATE-----
-----BEGIN RSA PRIVATE KEY-----
MIICXAIBAAKBgQDgcYjXbonT1GD8P2AW2EJJ/dp/bBNv8N067uTBvijXkKXaFAni
T/NwzPFq0MEHwoEds4WOBLIEPnNT0DR9D0JamFshySeVc/dbmpLvroYtyi/ajYKN
lxNtTW4IX8kWTLXRLuTMyndh4Q6KbF/8KDIpW1Ha+VQ4J5vouxEKyDEUpQIDAQAB
AoGAEbZkCjxa/DCihsWpm6Ptd1FlUPECh68GhoQb4X5UUs7Dh/ZU4VtV5u0FkFxx
H1+mOOXWAGM2eUdEarTfr47ouX++336EU658NzpdEsC2s+DgnviAlqw7rrfFXf4V
Uy36Vx5NGQWVD12qrEfG6hBy7Bdg0wsNzEE08BFYQPxllXECQQDxOq+7SbWqqv+y
QCPGtydGk+8ndnfMKcFJeniaRDF9iTCfV72sMPFWBYA2o9cmC1QHdvowg46MdSIM
iOYZyEafAkEA7i+6cwxK9Q8YdqmokzH9oBhDpWzxUms1cmzXeIj9Mkqq0w37x9lM
99QUlQHxkA+kT3QzJ2mLXOyBExgp/qpyOwJBAOEbd8PZS/rgqc3IRtp4LeGRyRnV
VoOh72pHLGYg/uH79PCtKyWVYpB4f6X9jJdG+PoiT+SXz51I7SYvVjJ3D1cCQFln
4Py+aISEHhKsrHJUGXe2o+28bvkY9P72jAraoO/3xxdh8Fib4KBGI1OrXxlMRcjt
PSZWH9HJlMmuEFVfdXECQD7I91o/5rGjlHF+n9X/I0X04/qPLGlExRy5zcxWgEDv
Oj6FTua+DK89TURtOXf/dMMKLtGFSGjD4y3RaR5z0y8=
-----END RSA PRIVATE KEY-----
